target datalayout = "e-m:e-p270:32:32-p271:32:32-p272:64:64-i64:64-i128:128-f80:128-n8:16:32:64-S128"
target triple = "x86_64-unknown-linux-gnu"

%"struct.icu_75::FormattedStringBuilder::Field" = type { i8 }
%"class.icu_75::FormattedValueStringBuilderImpl" = type <{ %"class.icu_75::FormattedValue", %"class.icu_75::FormattedStringBuilder", %"struct.icu_75::FormattedStringBuilder::Field", [7 x i8], %"class.icu_75::MaybeStackArray.2", i32, [4 x i8] }>
%"class.icu_75::FormattedValue" = type { ptr }
%"class.icu_75::FormattedStringBuilder" = type { i8, %"union.icu_75::FormattedStringBuilder::ValueOrHeapArray", %"union.icu_75::FormattedStringBuilder::ValueOrHeapArray.0", i32, i32 }
%"union.icu_75::FormattedStringBuilder::ValueOrHeapArray" = type { %struct.anon, [64 x i8] }
%struct.anon = type { ptr, i32 }
%"union.icu_75::FormattedStringBuilder::ValueOrHeapArray.0" = type { %struct.anon.1, [24 x i8] }
%struct.anon.1 = type { ptr, i32 }
%"class.icu_75::MaybeStackArray.2" = type { ptr, i32, i8, [8 x %"struct.icu_75::SpanInfo"] }
%"struct.icu_75::SpanInfo" = type { i32, i32, i32, i32 }

@_ZTVN6icu_7514FormattedValueE = external unnamed_addr constant { [8 x ptr] }, align 8

; Function Attrs: mustprogress nounwind uwtable
define linkonce_odr void @_ZN6icu_7515MaybeStackArrayINS_8SpanInfoELi8EEC2Ev(ptr noundef nonnull align 8 dereferenceable(144) %this) unnamed_addr #0 comdat align 2 {
entry:
  %this.addr = alloca ptr, align 8
  store ptr %this, ptr %this.addr, align 8
  %this1 = load ptr, ptr %this.addr, align 8
  %ptr = getelementptr inbounds %"class.icu_75::MaybeStackArray.2", ptr %this1, i32 0, i32 0
  %stackArray = getelementptr inbounds %"class.icu_75::MaybeStackArray.2", ptr %this1, i32 0, i32 3
  %arraydecay = getelementptr inbounds [8 x %"struct.icu_75::SpanInfo"], ptr %stackArray, i64 0, i64 0
  store ptr %arraydecay, ptr %ptr, align 8
  %capacity = getelementptr inbounds %"class.icu_75::MaybeStackArray.2", ptr %this1, i32 0, i32 1
  store i32 8, ptr %capacity, align 8
  %needToRelease = getelementptr inbounds %"class.icu_75::MaybeStackArray.2", ptr %this1, i32 0, i32 2
  store i8 0, ptr %needToRelease, align 4
  ret void
}

; Function Attrs: mustprogress nounwind uwtable
define linkonce_odr void @_ZN6icu_7514FormattedValueC2Ev(ptr noundef nonnull align 8 dereferenceable(8) %this) unnamed_addr #0 comdat align 2 {
entry:
  %this.addr = alloca ptr, align 8
  store ptr %this, ptr %this.addr, align 8
  %this1 = load ptr, ptr %this.addr, align 8
  store ptr getelementptr inbounds ({ [8 x ptr] }, ptr @_ZTVN6icu_7514FormattedValueE, i32 0, i32 0, i32 2), ptr %this1, align 8
  ret void
}

; Function Attrs: mustprogress uwtable
define void @_ZN6icu_7531FormattedValueStringBuilderImplC2ENS_22FormattedStringBuilder5FieldE(ptr noundef nonnull align 8 dereferenceable(300) %this, i8 %numericField.coerce) unnamed_addr #1 align 2 personality ptr @__gxx_personality_v0 {
entry:
  %numericField = alloca %"struct.icu_75::FormattedStringBuilder::Field", align 1
  %this.addr = alloca ptr, align 8
  %exn.slot = alloca ptr, align 8
  %ehselector.slot = alloca i32, align 4
  %coerce.dive = getelementptr inbounds %"struct.icu_75::FormattedStringBuilder::Field", ptr %numericField, i32 0, i32 0
  store i8 %numericField.coerce, ptr %coerce.dive, align 1
  store ptr %this, ptr %this.addr, align 8
  %this1 = load ptr, ptr %this.addr, align 8
  call void @_ZN6icu_7514FormattedValueC2Ev(ptr noundef nonnull align 8 dereferenceable(8) %this1) #8
  store ptr getelementptr inbounds ({ [8 x ptr] }, ptr @_ZTVN6icu_7531FormattedValueStringBuilderImplE, i32 0, i32 0, i32 2), ptr %this1, align 8
  %fString = getelementptr inbounds %"class.icu_75::FormattedValueStringBuilderImpl", ptr %this1, i32 0, i32 1
  invoke void @_ZN6icu_7522FormattedStringBuilderC1Ev(ptr noundef nonnull align 8 dereferenceable(136) %fString)
          to label %invoke.cont unwind label %lpad

invoke.cont:                                      ; preds = %entry
  %fNumericField = getelementptr inbounds %"class.icu_75::FormattedValueStringBuilderImpl", ptr %this1, i32 0, i32 2
  call void @llvm.memcpy.p0.p0.i64(ptr align 8 %fNumericField, ptr align 1 %numericField, i64 1, i1 false)
  %spanIndices = getelementptr inbounds %"class.icu_75::FormattedValueStringBuilderImpl", ptr %this1, i32 0, i32 4
  invoke void @_ZN6icu_7515MaybeStackArrayINS_8SpanInfoELi8EEC2Ev(ptr noundef nonnull align 8 dereferenceable(144) %spanIndices)
          to label %invoke.cont3 unwind label %lpad2

invoke.cont3:                                     ; preds = %invoke.cont
  %spanIndicesCount = getelementptr inbounds %"class.icu_75::FormattedValueStringBuilderImpl", ptr %this1, i32 0, i32 5
  store i32 0, ptr %spanIndicesCount, align 8
  ret void

lpad:                                             ; preds = %entry
  %0 = landingpad { ptr, i32 }
          cleanup
  %1 = extractvalue { ptr, i32 } %0, 0
  store ptr %1, ptr %exn.slot, align 8
  %2 = extractvalue { ptr, i32 } %0, 1
  store i32 %2, ptr %ehselector.slot, align 4
  br label %ehcleanup

lpad2:                                            ; preds = %invoke.cont
  %3 = landingpad { ptr, i32 }
          cleanup
  %4 = extractvalue { ptr, i32 } %3, 0
  store ptr %4, ptr %exn.slot, align 8
  %5 = extractvalue { ptr, i32 } %3, 1
  store i32 %5, ptr %ehselector.slot, align 4
  call void @_ZN6icu_7522FormattedStringBuilderD1Ev(ptr noundef nonnull align 8 dereferenceable(136) %fString) #8
  br label %ehcleanup

ehcleanup:                                        ; preds = %lpad2, %lpad
  call void @_ZN6icu_7514FormattedValueD2Ev(ptr noundef nonnull align 8 dereferenceable(8) %this1) #8
  br label %eh.resume

eh.resume:                                        ; preds = %ehcleanup
  %exn = load ptr, ptr %exn.slot, align 8
  %sel = load i32, ptr %ehselector.slot, align 4
  %lpad.val = insertvalue { ptr, i32 } poison, ptr %exn, 0
  %lpad.val4 = insertvalue { ptr, i32 } %lpad.val, i32 %sel, 1
  resume { ptr, i32 } %lpad.val4
}