; Function Attrs: mustprogress uwtable
define void @_ZN6icu_7531FormattedValueStringBuilderImplC2ENS_22FormattedStringBuilder5FieldE(ptr noundef nonnull align 8 dereferenceable(300) %this, i8 %numericField.coerce) unnamed_addr #1 align 2 personality ptr @__gxx_personality_v0 {
entry:
  store ptr getelementptr inbounds ({ [8 x ptr] }, ptr @_ZTVN6icu_7531FormattedValueStringBuilderImplE, i64 0, i32 0, i64 2), ptr %this, align 8
  %fString = getelementptr inbounds i8, ptr %this, i64 8
  invoke void @_ZN6icu_7522FormattedStringBuilderC1Ev(ptr noundef nonnull align 8 dereferenceable(136) %fString)
          to label %invoke.cont unwind label %lpad

invoke.cont:                                      ; preds = %entry
  %fNumericField = getelementptr inbounds i8, ptr %this, i64 144
  store i8 %numericField.coerce, ptr %fNumericField, align 8
  %spanIndices = getelementptr inbounds i8, ptr %this, i64 152
  %stackArray.i = getelementptr inbounds i8, ptr %this, i64 168
  store ptr %stackArray.i, ptr %spanIndices, align 8
  %capacity.i = getelementptr inbounds i8, ptr %this, i64 160
  store i32 8, ptr %capacity.i, align 8
  %needToRelease.i = getelementptr inbounds i8, ptr %this, i64 164
  store i8 0, ptr %needToRelease.i, align 4
  %spanIndicesCount = getelementptr inbounds i8, ptr %this, i64 296
  store i32 0, ptr %spanIndicesCount, align 8
  ret void

lpad:                                             ; preds = %entry
  %0 = landingpad { ptr, i32 }
          cleanup
  tail call void @_ZN6icu_7514FormattedValueD2Ev(ptr noundef nonnull align 8 dereferenceable(8) %this) #9
  resume { ptr, i32 } %0
}